; Function Attrs: nounwind uwtable
define i32 @Fxch_DivRemove(ptr noundef readonly captures(none) %0, i32 noundef %1, i32 noundef %2, i32 noundef %3) local_unnamed_addr #0 {
  %5 = getelementptr inbounds nuw i8, ptr %0, i64 48
  %6 = load ptr, ptr %5, align 8, !tbaa !27
  %7 = getelementptr inbounds nuw i8, ptr %0, i64 136
  %8 = load ptr, ptr %7, align 8, !tbaa !3
  %9 = tail call fastcc i32 @Hsh_VecManAdd(ptr noundef %6, ptr noundef %8)
  %.not = icmp eq i32 %2, 0
  %10 = getelementptr inbounds nuw i8, ptr %0, i64 56
  %11 = load ptr, ptr %10, align 8, !tbaa !28
  br i1 %.not, label %12, label %18

12:                                               ; preds = %4
  %13 = load ptr, ptr %7, align 8, !tbaa !3
  %14 = getelementptr i8, ptr %13, i64 4
  %.val = load i32, ptr %14, align 4, !tbaa !17
  %15 = add i32 %3, %.val
  %16 = sub i32 1, %15
  %17 = sitofp i32 %16 to float
  br label %18

18:                                               ; preds = %4, %12
  %.sink24 = phi float [ %17, %12 ], [ -1.000000e+00, %4 ]
  %19 = getelementptr i8, ptr %11, i64 8
  %.val18 = load ptr, ptr %19, align 8, !tbaa !36
  %20 = sext i32 %9 to i64
  %21 = getelementptr inbounds float, ptr %.val18, i64 %20
  %22 = load float, ptr %21, align 4, !tbaa !37
  %23 = fadd float %22, %.sink24
  store float %23, ptr %21, align 4, !tbaa !37
  %.not15 = icmp eq i32 %1, 0
  br i1 %.not15, label %Vec_QueIsMember.exit.thread, label %24

24:                                               ; preds = %18
  %25 = getelementptr inbounds nuw i8, ptr %0, i64 64
  %26 = load ptr, ptr %25, align 8, !tbaa !39
  %.not16 = icmp eq ptr %26, null
  br i1 %.not16, label %Vec_QueIsMember.exit.thread, label %27

27:                                               ; preds = %24
  %28 = load i32, ptr %26, align 8, !tbaa !40
  %29 = icmp slt i32 %9, %28
  br i1 %29, label %Vec_QueIsMember.exit, label %Vec_QueIsMember.exit.thread

Vec_QueIsMember.exit:                             ; preds = %27
  %30 = getelementptr inbounds nuw i8, ptr %26, i64 16
  %31 = load ptr, ptr %30, align 8, !tbaa !43
  %32 = sext i32 %9 to i64
  %33 = getelementptr inbounds i32, ptr %31, i64 %32
  %34 = load i32, ptr %33, align 4, !tbaa !25
  %35 = icmp slt i32 %34, 0
  br i1 %35, label %Vec_QueIsMember.exit.thread, label %36

36:                                               ; preds = %Vec_QueIsMember.exit
  tail call fastcc void @Vec_QueUpdate(ptr noundef nonnull %26, i32 noundef %9)
  br label %Vec_QueIsMember.exit.thread

Vec_QueIsMember.exit.thread:                      ; preds = %27, %24, %36, %Vec_QueIsMember.exit, %18
  ret i32 %9
}